target datalayout = "e-m:e-p270:32:32-p271:32:32-p272:64:64-i64:64-i128:128-f80:128-n8:16:32:64-S128"
target triple = "x86_64-pc-linux-gnu"

%struct.H5FL_reg_head_t = type { i8, i32, i32, ptr, i64, ptr }
%struct.H5O_shared_t = type { i32, ptr, i32, %union.anon }
%union.anon = type { %struct.H5O_mesg_loc_t }
%struct.H5O_mesg_loc_t = type { i32, i64 }
%struct.H5A_t = type { %struct.H5O_shared_t, %struct.H5O_loc_t, i8, %struct.H5G_name_t, ptr }
%struct.H5O_loc_t = type { ptr, i64, i8 }
%struct.H5G_name_t = type { ptr, ptr, i32 }

@H5A_init_g = external global i8, align 1
@H5_libterm_g = external global i8, align 1
@.str = private unnamed_addr constant [102 x i8] c"generated/home/dtcxzyw/WorkSpace/Projects/compilers/llvm-opt-benchmark/bench/hdf5/hdf5/src/H5Adense.c\00", align 1
@H5E_ATTR_g = external global i64, align 8
@__func__.H5A__dense_fnd_cb = private unnamed_addr constant [18 x i8] c"H5A__dense_fnd_cb\00", align 1
@H5E_CANTRELEASE_g = external global i64, align 8
@.str.46 = private unnamed_addr constant [29 x i8] c"can't release attribute info\00", align 1
@H5_H5A_t_reg_free_list = external global %struct.H5FL_reg_head_t, align 8

; Function Attrs: nounwind uwtable
define internal i32 @H5A__dense_fnd_cb(ptr noundef %0, ptr noundef %1, ptr noundef %2) #0 {
  %4 = alloca i32, align 4
  %5 = alloca ptr, align 8
  %6 = alloca ptr, align 8
  %7 = alloca ptr, align 8
  %8 = alloca ptr, align 8
  %9 = alloca i32, align 4
  %10 = alloca i8, align 1
  %11 = alloca ptr, align 8
  %12 = alloca i32, align 4
  store ptr %0, ptr %5, align 8, !tbaa !46
  store ptr %1, ptr %6, align 8, !tbaa !60
  store ptr %2, ptr %7, align 8, !tbaa !62
  call void @llvm.lifetime.start.p0(i64 8, ptr %8) #7
  %13 = load ptr, ptr %7, align 8, !tbaa !62
  store ptr %13, ptr %8, align 8, !tbaa !63
  call void @llvm.lifetime.start.p0(i64 4, ptr %9) #7
  store i32 0, ptr %9, align 4, !tbaa !14
  call void @llvm.lifetime.start.p0(i64 1, ptr %10) #7
  store i8 0, ptr %10, align 1, !tbaa !16
  %14 = load i8, ptr @H5A_init_g, align 1, !tbaa !16, !range !18, !noundef !19
  %15 = trunc i8 %14 to i1
  br i1 %15, label %20, label %16

16:                                               ; preds = %3
  %17 = load i8, ptr @H5_libterm_g, align 1, !tbaa !16, !range !18, !noundef !19
  %18 = trunc i8 %17 to i1
  %19 = xor i1 %18, true
  br label %20

20:                                               ; preds = %16, %3
  %21 = phi i1 [ true, %3 ], [ %19, %16 ]
  %22 = xor i1 %21, true
  %23 = xor i1 %22, true
  %24 = zext i1 %23 to i32
  %25 = sext i32 %24 to i64
  %26 = call i64 @llvm.expect.i64(i64 %25, i64 1)
  %27 = icmp ne i64 %26, 0
  br i1 %27, label %28, label %74

28:                                               ; preds = %20
  %29 = load ptr, ptr %8, align 8, !tbaa !63
  %30 = load ptr, ptr %29, align 8, !tbaa !46
  %31 = icmp ne ptr %30, null
  br i1 %31, label %32, label %69

32:                                               ; preds = %28
  call void @llvm.lifetime.start.p0(i64 8, ptr %11) #7
  %33 = load ptr, ptr %7, align 8, !tbaa !62
  %34 = load ptr, ptr %33, align 8, !tbaa !46
  store ptr %34, ptr %11, align 8, !tbaa !46
  %35 = load ptr, ptr %11, align 8, !tbaa !46
  %36 = getelementptr inbounds nuw %struct.H5A_t, ptr %35, i32 0, i32 4
  %37 = load ptr, ptr %36, align 8, !tbaa !65
  %38 = icmp ne ptr %37, null
  br i1 %38, label %39, label %63

39:                                               ; preds = %32
  %40 = load ptr, ptr %11, align 8, !tbaa !46
  %41 = call i32 @H5A__shared_free(ptr noundef %40)
  %42 = icmp slt i32 %41, 0
  br i1 %42, label %43, label %62

43:                                               ; preds = %39
  br label %44

44:                                               ; preds = %43
  br label %45

45:                                               ; preds = %44
  br label %46

46:                                               ; preds = %45
  %47 = load i64, ptr @H5E_ATTR_g, align 8, !tbaa !34
  %48 = load i64, ptr @H5E_CANTRELEASE_g, align 8, !tbaa !34
  %49 = call i32 (ptr, ptr, i32, i64, i64, ptr, ...) @H5E_printf_stack(ptr noundef @.str, ptr noundef @__func__.H5A__dense_fnd_cb, i32 noundef 300, i64 noundef %47, i64 noundef %48, ptr noundef @.str.46)
  br label %50

50:                                               ; preds = %46
  br label %51

51:                                               ; preds = %50
  store i8 1, ptr %10, align 1, !tbaa !16
  %52 = load i8, ptr %10, align 1, !tbaa !16, !range !18, !noundef !19
  %53 = trunc i8 %52 to i1
  %54 = zext i1 %53 to i8
  store i8 %54, ptr %10, align 1, !tbaa !16
  br label %55

55:                                               ; preds = %51
  br label %56

56:                                               ; preds = %55
  br label %57

57:                                               ; preds = %56
  store i32 -1, ptr %9, align 4, !tbaa !14
  store i32 10, ptr %12, align 4
  br label %66

58:                                               ; No predecessors!
  br label %59

59:                                               ; preds = %58
  br label %60

60:                                               ; preds = %59
  br label %61

61:                                               ; preds = %60
  br label %62

62:                                               ; preds = %61, %39
  br label %63

63:                                               ; preds = %62, %32
  %64 = load ptr, ptr %11, align 8, !tbaa !46
  %65 = call ptr @H5FL_reg_free(ptr noundef @H5_H5A_t_reg_free_list, ptr noundef %64)
  store ptr %65, ptr %11, align 8, !tbaa !46
  store i32 0, ptr %12, align 4
  br label %66

66:                                               ; preds = %57, %63
  call void @llvm.lifetime.end.p0(i64 8, ptr %11) #7
  %67 = load i32, ptr %12, align 4
  switch i32 %67, label %76 [
    i32 0, label %68
    i32 10, label %73
  ]

68:                                               ; preds = %66
  br label %69

69:                                               ; preds = %68, %28
  %70 = load ptr, ptr %5, align 8, !tbaa !46
  %71 = load ptr, ptr %8, align 8, !tbaa !63
  store ptr %70, ptr %71, align 8, !tbaa !46
  %72 = load ptr, ptr %6, align 8, !tbaa !60
  store i8 1, ptr %72, align 1, !tbaa !16
  br label %73

73:                                               ; preds = %69, %66
  br label %74

74:                                               ; preds = %73, %20
  %75 = load i32, ptr %9, align 4, !tbaa !14
  store i32 %75, ptr %4, align 4
  store i32 1, ptr %12, align 4
  br label %76

76:                                               ; preds = %74, %66
  call void @llvm.lifetime.end.p0(i64 1, ptr %10) #7
  call void @llvm.lifetime.end.p0(i64 4, ptr %9) #7
  call void @llvm.lifetime.end.p0(i64 8, ptr %8) #7
  %77 = load i32, ptr %4, align 4
  ret i32 %77
}