; Function Attrs: nounwind uwtable
define internal range(i32 -1, 1) i32 @H5A__dense_fnd_cb(ptr noundef %0, ptr noundef writeonly captures(none) %1, ptr noundef captures(none) %2) #0 {
  %4 = load i8, ptr @H5A_init_g, align 1, !tbaa !3, !range !7, !noundef !8
  %5 = trunc nuw i8 %4 to i1
  %6 = load i8, ptr @H5_libterm_g, align 1, !range !7
  %7 = trunc nuw i8 %6 to i1
  %8 = xor i1 %7, true
  %9 = select i1 %5, i1 true, i1 %8
  br i1 %9, label %10, label %24, !prof !9

10:                                               ; preds = %3
  %11 = load ptr, ptr %2, align 8, !tbaa !37
  %.not = icmp eq ptr %11, null
  br i1 %.not, label %23, label %12

12:                                               ; preds = %10
  %13 = getelementptr inbounds nuw i8, ptr %11, i64 96
  %14 = load ptr, ptr %13, align 8, !tbaa !53
  %.not15 = icmp eq ptr %14, null
  br i1 %.not15, label %.thread, label %15

15:                                               ; preds = %12
  %16 = tail call i32 @H5A__shared_free(ptr noundef nonnull %11) #7
  %17 = icmp slt i32 %16, 0
  br i1 %17, label %19, label %.thread

.thread:                                          ; preds = %12, %15
  %18 = tail call ptr @H5FL_reg_free(ptr noundef nonnull @H5_H5A_t_reg_free_list, ptr noundef nonnull %11) #7
  br label %23

19:                                               ; preds = %15
  %20 = load i64, ptr @H5E_ATTR_g, align 8, !tbaa !27
  %21 = load i64, ptr @H5E_CANTRELEASE_g, align 8, !tbaa !27
  %22 = tail call i32 (ptr, ptr, i32, i64, i64, ptr, ...) @H5E_printf_stack(ptr noundef nonnull @.str, ptr noundef nonnull @__func__.H5A__dense_fnd_cb, i32 noundef 300, i64 noundef %20, i64 noundef %21, ptr noundef nonnull @.str.46) #7
  br label %24

23:                                               ; preds = %.thread, %10
  store ptr %0, ptr %2, align 8, !tbaa !37
  store i8 1, ptr %1, align 1, !tbaa !3
  br label %24

24:                                               ; preds = %19, %3, %23
  %.013 = phi i32 [ -1, %19 ], [ 0, %23 ], [ 0, %3 ]
  ret i32 %.013
}